target datalayout = "e-m:e-p270:32:32-p271:32:32-p272:64:64-i64:64-i128:128-f80:128-n8:16:32:64-S128"
target triple = "x86_64-pc-linux-gnu"

@.str.1 = private unnamed_addr constant [50 x i8] c"\0AInvalid LTL formula: unexpected end of string...\00", align 1
@.str.2 = private unnamed_addr constant [74 x i8] c"\0AInvalid LTL formula: expecting temporal operator at the position %d....\0A\00", align 1

; Function Attrs: nounwind uwtable
define i32 @isUnexpectedEOS(ptr noundef %0, i32 noundef %1) #0 {
  %3 = alloca i32, align 4
  %4 = alloca ptr, align 8
  %5 = alloca i32, align 4
  store ptr %0, ptr %4, align 8, !tbaa !45
  store i32 %1, ptr %5, align 4, !tbaa !3
  %6 = load i32, ptr %5, align 4, !tbaa !3
  %7 = load ptr, ptr %4, align 8, !tbaa !45
  %8 = call i64 @strlen(ptr noundef %7) #11
  %9 = trunc i64 %8 to i32
  %10 = icmp sge i32 %6, %9
  br i1 %10, label %11, label %13

11:                                               ; preds = %2
  %12 = call i32 (ptr, ...) @printf(ptr noundef @.str.1)
  store i32 1, ptr %3, align 4
  br label %14

13:                                               ; preds = %2
  store i32 0, ptr %3, align 4
  br label %14

14:                                               ; preds = %13, %11
  %15 = load i32, ptr %3, align 4
  ret i32 %15
}

; Function Attrs: nounwind uwtable
define i32 @isTemporalOperator(ptr noundef %0, i32 noundef %1) #0 {
  %3 = alloca i32, align 4
  %4 = alloca ptr, align 8
  %5 = alloca i32, align 4
  store ptr %0, ptr %4, align 8, !tbaa !45
  store i32 %1, ptr %5, align 4, !tbaa !3
  %6 = load ptr, ptr %4, align 8, !tbaa !45
  %7 = load i32, ptr %5, align 4, !tbaa !3
  %8 = call i32 @isUnexpectedEOS(ptr noundef %6, i32 noundef %7)
  %9 = icmp ne i32 %8, 0
  br i1 %9, label %45, label %10

10:                                               ; preds = %2
  %11 = load ptr, ptr %4, align 8, !tbaa !45
  %12 = load i32, ptr %5, align 4, !tbaa !3
  %13 = sext i32 %12 to i64
  %14 = getelementptr inbounds i8, ptr %11, i64 %13
  %15 = load i8, ptr %14, align 1, !tbaa !55
  %16 = sext i8 %15 to i32
  %17 = icmp eq i32 %16, 71
  br i1 %17, label %45, label %18

18:                                               ; preds = %10
  %19 = load ptr, ptr %4, align 8, !tbaa !45
  %20 = load i32, ptr %5, align 4, !tbaa !3
  %21 = sext i32 %20 to i64
  %22 = getelementptr inbounds i8, ptr %19, i64 %21
  %23 = load i8, ptr %22, align 1, !tbaa !55
  %24 = sext i8 %23 to i32
  %25 = icmp eq i32 %24, 70
  br i1 %25, label %45, label %26

26:                                               ; preds = %18
  %27 = load ptr, ptr %4, align 8, !tbaa !45
  %28 = load i32, ptr %5, align 4, !tbaa !3
  %29 = sext i32 %28 to i64
  %30 = getelementptr inbounds i8, ptr %27, i64 %29
  %31 = load i8, ptr %30, align 1, !tbaa !55
  %32 = sext i8 %31 to i32
  %33 = icmp eq i32 %32, 85
  br i1 %33, label %45, label %34

34:                                               ; preds = %26
  %35 = load ptr, ptr %4, align 8, !tbaa !45
  %36 = load i32, ptr %5, align 4, !tbaa !3
  %37 = sext i32 %36 to i64
  %38 = getelementptr inbounds i8, ptr %35, i64 %37
  %39 = load i8, ptr %38, align 1, !tbaa !55
  %40 = sext i8 %39 to i32
  %41 = icmp eq i32 %40, 88
  br i1 %41, label %45, label %42

42:                                               ; preds = %34
  %43 = load i32, ptr %5, align 4, !tbaa !3
  %44 = call i32 (ptr, ...) @printf(ptr noundef @.str.2, i32 noundef %43)
  store i32 0, ptr %3, align 4
  br label %46

45:                                               ; preds = %34, %26, %18, %10, %2
  store i32 1, ptr %3, align 4
  br label %46

46:                                               ; preds = %45, %42
  %47 = load i32, ptr %3, align 4
  ret i32 %47
}