; Function Attrs: nofree nounwind uwtable
define range(i32 0, 2) i32 @isTemporalOperator(ptr noundef readonly captures(none) %0, i32 noundef %1) local_unnamed_addr #5 {
  %3 = tail call i64 @strlen(ptr noundef nonnull readonly dereferenceable(1) %0) #24
  %4 = trunc i64 %3 to i32
  %.not.i = icmp slt i32 %1, %4
  br i1 %.not.i, label %6, label %isUnexpectedEOS.exit

isUnexpectedEOS.exit:                             ; preds = %2
  %5 = tail call i32 (ptr, ...) @printf(ptr noundef nonnull dereferenceable(1) @.str.1)
  br label %12

6:                                                ; preds = %2
  %7 = sext i32 %1 to i64
  %8 = getelementptr inbounds i8, ptr %0, i64 %7
  %9 = load i8, ptr %8, align 1, !tbaa !43
  switch i8 %9, label %10 [
    i8 71, label %12
    i8 70, label %12
    i8 85, label %12
    i8 88, label %12
  ]

10:                                               ; preds = %6
  %11 = tail call i32 (ptr, ...) @printf(ptr noundef nonnull dereferenceable(1) @.str.2, i32 noundef %1)
  br label %12

12:                                               ; preds = %isUnexpectedEOS.exit, %6, %6, %6, %6, %10
  %.0 = phi i32 [ 0, %10 ], [ 1, %6 ], [ 1, %6 ], [ 1, %6 ], [ 1, %6 ], [ 1, %isUnexpectedEOS.exit ]
  ret i32 %.0
}